target datalayout = "e-m:e-p270:32:32-p271:32:32-p272:64:64-i64:64-i128:128-f80:128-n8:16:32:64-S128"
target triple = "x86_64-pc-linux-gnu"

%class.symbol = type { ptr }
%class.cmd_context = type { %class.progress_callback, %class.tactic_manager, %class.ast_printer_context, %class.ast_context_params, i8, %class.symbol, i8, i8, i8, i32, i8, i8, i8, i32, i8, i8, i8, i8, %class.scoped_ptr, %class.ref_vector_core, ptr, i8, i8, ptr, ptr, %class.check_logic, %class.stream_ref, %class.stream_ref, %class.map.14, %class.map.18, %class.scoped_ptr_vector, %class.map.24, %class.map.28, %class.vector.32, %class.map.33, %class.obj_map, %class.map.39, %class.map.43, %class.svector, %class.svector.48, %class.svector.48, %class.ptr_vector.50, %class.ptr_vector.50, %class.ptr_vector.52, %"class.std::vector", %class.ptr_vector.52, %class.scoped_ptr.57, %class.scoped_ptr.57, %class.svector.58, %class.scoped_ptr.60, %class.ref, %class.ref.61, %class.ref.62, %class.stopwatch, %class.scoped_ptr.63, %class.scoped_ptr.64 }
%class.progress_callback = type { ptr }
%class.tactic_manager = type { %class.map, %class.map.0, %class.map.4, %class.ptr_vector, %class.ptr_vector.8, %class.ptr_vector.10 }
%class.map = type { %class.table2map }
%class.table2map = type { %class.core_hashtable }
%class.core_hashtable = type <{ ptr, i32, i32, i32, [4 x i8] }>
%class.map.0 = type { %class.table2map.1 }
%class.table2map.1 = type { %class.core_hashtable.2 }
%class.core_hashtable.2 = type <{ ptr, i32, i32, i32, [4 x i8] }>
%class.map.4 = type { %class.table2map.5 }
%class.table2map.5 = type { %class.core_hashtable.6 }
%class.core_hashtable.6 = type <{ ptr, i32, i32, i32, [4 x i8] }>
%class.ptr_vector = type { %class.vector }
%class.vector = type { ptr }
%class.ptr_vector.8 = type { %class.vector.9 }
%class.vector.9 = type { ptr }
%class.ptr_vector.10 = type { %class.vector.11 }
%class.vector.11 = type { ptr }
%class.ast_printer_context = type { %class.ast_printer }
%class.ast_printer = type { ptr }
%class.ast_context_params = type { %class.context_params, ptr }
%class.context_params = type { i32, i32, %"class.std::__cxx11::basic_string", %"class.std::__cxx11::basic_string", i8, i8, i8, i8, i8, i8, i8, i8, i8, i8, i8, %"class.std::__cxx11::basic_string" }
%"class.std::__cxx11::basic_string" = type { %"struct.std::__cxx11::basic_string<char>::_Alloc_hider", i64, %union.anon }
%"struct.std::__cxx11::basic_string<char>::_Alloc_hider" = type { ptr }
%union.anon = type { i64, [8 x i8] }
%class.scoped_ptr = type { ptr }
%class.ref_vector_core = type { %class.ptr_vector.12 }
%class.ptr_vector.12 = type { %class.vector.13 }
%class.vector.13 = type { ptr }
%class.check_logic = type { ptr }
%class.stream_ref = type <{ %"class.std::__cxx11::basic_string", ptr, %"class.std::__cxx11::basic_string", ptr, i8, [7 x i8] }>
%class.map.14 = type { %class.table2map.15 }
%class.table2map.15 = type { %class.core_hashtable.16 }
%class.core_hashtable.16 = type <{ ptr, i32, i32, i32, [4 x i8] }>
%class.map.18 = type { %class.table2map.19 }
%class.table2map.19 = type { %class.core_hashtable.20 }
%class.core_hashtable.20 = type <{ ptr, i32, i32, i32, [4 x i8] }>
%class.scoped_ptr_vector = type { %class.ptr_vector.22 }
%class.ptr_vector.22 = type { %class.vector.23 }
%class.vector.23 = type { ptr }
%class.map.24 = type { %class.table2map.25 }
%class.table2map.25 = type { %class.core_hashtable.26 }
%class.core_hashtable.26 = type <{ ptr, i32, i32, i32, [4 x i8] }>
%class.map.28 = type { %class.table2map.29 }
%class.table2map.29 = type { %class.core_hashtable.30 }
%class.core_hashtable.30 = type <{ ptr, i32, i32, i32, [4 x i8] }>
%class.vector.32 = type { ptr }
%class.map.33 = type { %class.table2map.34 }
%class.table2map.34 = type { %class.core_hashtable.35 }
%class.core_hashtable.35 = type <{ ptr, i32, i32, i32, [4 x i8] }>
%class.obj_map = type { %class.core_hashtable.37 }
%class.core_hashtable.37 = type <{ ptr, i32, i32, i32, [4 x i8] }>
%class.map.39 = type { %class.table2map.40 }
%class.table2map.40 = type { %class.core_hashtable.41 }
%class.core_hashtable.41 = type <{ ptr, i32, i32, i32, [4 x i8] }>
%class.map.43 = type { %class.table2map.44 }
%class.table2map.44 = type { %class.core_hashtable.45 }
%class.core_hashtable.45 = type <{ ptr, i32, i32, i32, [4 x i8] }>
%class.svector = type { %class.vector.47 }
%class.vector.47 = type { ptr }
%class.svector.48 = type { %class.vector.49 }
%class.vector.49 = type { ptr }
%class.ptr_vector.50 = type { %class.vector.51 }
%class.vector.51 = type { ptr }
%"class.std::vector" = type { %"struct.std::_Vector_base" }
%"struct.std::_Vector_base" = type { %"struct.std::_Vector_base<std::__cxx11::basic_string<char>, std::allocator<std::__cxx11::basic_string<char>>>::_Vector_impl" }
%"struct.std::_Vector_base<std::__cxx11::basic_string<char>, std::allocator<std::__cxx11::basic_string<char>>>::_Vector_impl" = type { %"struct.std::_Vector_base<std::__cxx11::basic_string<char>, std::allocator<std::__cxx11::basic_string<char>>>::_Vector_impl_data" }
%"struct.std::_Vector_base<std::__cxx11::basic_string<char>, std::allocator<std::__cxx11::basic_string<char>>>::_Vector_impl_data" = type { ptr, ptr, ptr }
%class.ptr_vector.52 = type { %class.vector.53 }
%class.vector.53 = type { ptr }
%class.scoped_ptr.57 = type { ptr }
%class.svector.58 = type { %class.vector.59 }
%class.vector.59 = type { ptr }
%class.scoped_ptr.60 = type { ptr }
%class.ref = type { ptr }
%class.ref.61 = type { ptr }
%class.ref.62 = type { ptr }
%class.stopwatch = type <{ %"class.std::chrono::time_point", %"class.std::chrono::duration", i8, [7 x i8] }>
%"class.std::chrono::time_point" = type { %"class.std::chrono::duration" }
%"class.std::chrono::duration" = type { i64 }
%class.scoped_ptr.63 = type { ptr }
%class.scoped_ptr.64 = type { ptr }

@_ZTI11opt_wrapper = linkonce_odr hidden constant { ptr, ptr, ptr } { ptr getelementptr inbounds (ptr, ptr @_ZTVN10__cxxabiv120__si_class_type_infoE, i64 2), ptr @_ZTS11opt_wrapper, ptr @_ZTI16check_sat_result }, comdat, align 8
@_ZTIN3opt7contextE = external constant ptr

; Function Attrs: mustprogress uwtable
define linkonce_odr hidden noundef nonnull align 8 dereferenceable(976) ptr @_ZNK11cmd_context1mEv(ptr noundef nonnull align 8 dereferenceable(896) %0) #6 comdat align 2 {
  %2 = alloca ptr, align 8
  store ptr %0, ptr %2, align 8, !tbaa !28
  %3 = load ptr, ptr %2, align 8
  call void @_ZN11cmd_context12init_managerEv(ptr noundef nonnull align 8 dereferenceable(896) %3)
  %4 = getelementptr inbounds nuw %class.cmd_context, ptr %3, i32 0, i32 20
  %5 = load ptr, ptr %4, align 8, !tbaa !103
  ret ptr %5
}

; Function Attrs: mustprogress uwtable
define internal noundef nonnull align 8 dereferenceable(808) ptr @_ZL7get_optR11cmd_contextPN3opt7contextE(ptr noundef nonnull align 8 dereferenceable(896) %0, ptr noundef %1) #6 {
  %3 = alloca ptr, align 8
  %4 = alloca ptr, align 8
  %5 = alloca ptr, align 8
  store ptr %0, ptr %4, align 8, !tbaa !28
  store ptr %1, ptr %5, align 8, !tbaa !30
  %6 = load ptr, ptr %5, align 8, !tbaa !30
  %7 = icmp ne ptr %6, null
  br i1 %7, label %8, label %10

8:                                                ; preds = %2
  %9 = load ptr, ptr %5, align 8, !tbaa !30
  store ptr %9, ptr %3, align 8
  br label %26

10:                                               ; preds = %2
  %11 = load ptr, ptr %4, align 8, !tbaa !28
  %12 = call noundef ptr @_ZN11cmd_context7get_optEv(ptr noundef nonnull align 8 dereferenceable(896) %11)
  %13 = icmp ne ptr %12, null
  br i1 %13, label %19, label %14

14:                                               ; preds = %10
  %15 = load ptr, ptr %4, align 8, !tbaa !28
  %16 = call noalias noundef ptr @_ZN6memory8allocateEm(i64 noundef 808)
  %17 = load ptr, ptr %4, align 8, !tbaa !28
  %18 = call noundef nonnull align 8 dereferenceable(976) ptr @_ZNK11cmd_context1mEv(ptr noundef nonnull align 8 dereferenceable(896) %17)
  call void @_ZN3opt7contextC1ER11ast_manager(ptr noundef nonnull align 8 dereferenceable(808) %16, ptr noundef nonnull align 8 dereferenceable(976) %18)
  call void @_ZN11cmd_context7set_optEP11opt_wrapper(ptr noundef nonnull align 8 dereferenceable(896) %15, ptr noundef %16)
  br label %19

19:                                               ; preds = %14, %10
  %20 = load ptr, ptr %4, align 8, !tbaa !28
  %21 = call noundef ptr @_ZN11cmd_context7get_optEv(ptr noundef nonnull align 8 dereferenceable(896) %20)
  %22 = call ptr @__dynamic_cast(ptr %21, ptr @_ZTI11opt_wrapper, ptr @_ZTIN3opt7contextE, i64 0) #3
  %23 = icmp eq ptr %22, null
  br i1 %23, label %24, label %25

24:                                               ; preds = %19
  call void @__cxa_bad_cast() #20
  unreachable

25:                                               ; preds = %19
  store ptr %22, ptr %3, align 8
  br label %26

26:                                               ; preds = %25, %8
  %27 = load ptr, ptr %3, align 8
  ret ptr %27
}