; Function Attrs: mustprogress uwtable
define internal fastcc noundef nonnull align 8 dereferenceable(808) ptr @_ZL7get_optR11cmd_contextPN3opt7contextE(ptr noundef nonnull align 8 dereferenceable(896) %0, ptr noundef readnone captures(address_is_null, ret: address, provenance) %1) unnamed_addr #4 {
  %.not = icmp eq ptr %1, null
  br i1 %.not, label %3, label %14

3:                                                ; preds = %2
  %4 = tail call noundef ptr @_ZN11cmd_context7get_optEv(ptr noundef nonnull align 8 dereferenceable(896) %0)
  %.not9 = icmp eq ptr %4, null
  br i1 %.not9, label %5, label %9

5:                                                ; preds = %3
  %6 = tail call noalias noundef ptr @_ZN6memory8allocateEm(i64 noundef 808)
  tail call void @_ZN11cmd_context12init_managerEv(ptr noundef nonnull align 8 dereferenceable(896) %0)
  %7 = getelementptr inbounds nuw i8, ptr %0, i64 296
  %8 = load ptr, ptr %7, align 8, !tbaa !39
  tail call void @_ZN3opt7contextC1ER11ast_manager(ptr noundef nonnull align 8 dereferenceable(808) %6, ptr noundef nonnull align 8 dereferenceable(976) %8)
  tail call void @_ZN11cmd_context7set_optEP11opt_wrapper(ptr noundef nonnull align 8 dereferenceable(896) %0, ptr noundef nonnull %6)
  br label %9

9:                                                ; preds = %5, %3
  %10 = tail call noundef ptr @_ZN11cmd_context7get_optEv(ptr noundef nonnull align 8 dereferenceable(896) %0)
  %11 = tail call ptr @__dynamic_cast(ptr %10, ptr nonnull @_ZTI11opt_wrapper, ptr nonnull @_ZTIN3opt7contextE, i64 0) #20
  %12 = icmp eq ptr %11, null
  br i1 %12, label %13, label %14

13:                                               ; preds = %9
  tail call void @__cxa_bad_cast() #22
  unreachable

14:                                               ; preds = %9, %2
  %.0 = phi ptr [ %1, %2 ], [ %11, %9 ]
  ret ptr %.0
}